; Function Attrs: mustprogress nounwind uwtable
define internal void @_ZN5folly20SingletonThreadLocalIN8proxygen12_GLOBAL__N_113FormattedDateEZNS1_11HTTPMessage16formatDateHeaderB5cxx11EvE7DateTagNS_6detail11DefaultMakeIS3_EES5_E13LocalLifetimeD2Ev(ptr noundef nonnull align 1 dereferenceable(1) %this) unnamed_addr #3 align 2 personality ptr @__gxx_personality_v0 {
entry:
  %call = invoke fastcc noundef nonnull align 8 dereferenceable(152) ptr @_ZN5folly20SingletonThreadLocalIN8proxygen12_GLOBAL__N_113FormattedDateEZNS1_11HTTPMessage16formatDateHeaderB5cxx11EvE7DateTagNS_6detail11DefaultMakeIS3_EES5_E10getWrapperEv()
          to label %invoke.cont unwind label %terminate.lpad

invoke.cont:                                      ; preds = %entry
  %add.ptr = getelementptr inbounds i8, ptr %call, i64 40
  tail call void @_ZN5folly6detail25SingletonThreadLocalState13LocalLifetime7destroyERNS1_7WrapperE(ptr noundef nonnull align 1 dereferenceable(1) %this, ptr noundef nonnull align 8 dereferenceable(112) %add.ptr) #23
  ret void

terminate.lpad:                                   ; preds = %entry
  %0 = landingpad { ptr, i32 }
          catch ptr null
  %1 = extractvalue { ptr, i32 } %0, 0
  tail call void @__clang_call_terminate(ptr %1) #35
  unreachable
}